target datalayout = "e-m:e-p270:32:32-p271:32:32-p272:64:64-i64:64-i128:128-f80:128-n8:16:32:64-S128"
target triple = "x86_64-pc-linux-gnu"

%struct.HTable = type { i32, ptr }
%struct.Module_ = type { ptr, ptr, ptr, i16, i32, ptr, %struct.HTable, ptr, ptr, ptr, ptr, ptr, ptr, ptr, ptr, ptr }
%union.SourceSpan = type { i64 }
%struct.Vmem = type { ptr, i64, i64 }
%struct.VHeader_ = type { i32, i32, [0 x i8] }
%struct.SemaContext_ = type { ptr, ptr, ptr, %struct.CallEnv, ptr, %union.SourceSpan, i32, i32, ptr, i32, ptr, i32, i32, ptr, ptr, i32, %struct.anon.88, ptr, ptr, ptr, %struct.DynamicScope_, ptr }
%struct.CallEnv = type { i16, ptr, %union.anon.84 }
%union.anon.84 = type { ptr }
%struct.anon.88 = type { i32, ptr, ptr, ptr, ptr, ptr, ptr, ptr, ptr, ptr, i8, ptr }
%struct.DynamicScope_ = type { i32, i8, i32, i32, i32, i32, i32, ptr, i32 }
%struct.Expr_ = type { ptr, %union.SourceSpan, i16, %union.anon.29 }
%union.anon.29 = type { %struct.ExprAnySwitch }
%struct.ExprAnySwitch = type { i8, %union.anon.31 }
%union.anon.31 = type { %struct.anon.32 }
%struct.anon.32 = type { ptr, %union.SourceSpan, ptr }
%struct.Ast_ = type { %union.SourceSpan, i32, i8, %union.anon.62 }
%union.anon.62 = type { %struct.AstDocDirective_ }
%struct.AstDocDirective_ = type { i8, %union.anon.65 }
%union.anon.65 = type { %struct.anon.66 }
%struct.anon.66 = type { ptr, %union.SourceSpan, i8 }
%struct.anon.67 = type { ptr, ptr, ptr }

@ast_arena = external global %struct.Vmem, align 8
@.str.126 = private unnamed_addr constant [43 x i8] c"Parameter(s) would violate constraint: %s.\00", align 1
@.str.127 = private unnamed_addr constant [35 x i8] c"Parameter(s) failed validation: %s\00", align 1

; Function Attrs: nounwind uwtable
define internal ptr @astptr(i32 noundef %0) #0 {
  %2 = alloca i32, align 4
  store i32 %0, ptr %2, align 4
  %3 = load ptr, ptr @ast_arena, align 8
  %4 = load i32, ptr %2, align 4
  %5 = zext i32 %4 to i64
  %6 = getelementptr inbounds %struct.Ast_, ptr %3, i64 %5
  ret ptr %6
}

; Function Attrs: nounwind uwtable
define internal zeroext i1 @sema_analyse_generic_module_contracts(ptr noundef %0, ptr noundef %1, i64 %2) #0 {
  %4 = alloca i32, align 4
  %5 = alloca ptr, align 8
  %6 = alloca ptr, align 8
  %7 = alloca i1, align 1
  %8 = alloca %union.SourceSpan, align 8
  %9 = alloca ptr, align 8
  %10 = alloca ptr, align 8
  %11 = alloca i32, align 4
  %12 = alloca ptr, align 8
  %13 = alloca %struct.SemaContext_, align 8
  %14 = alloca ptr, align 8
  %15 = alloca ptr, align 8
  %16 = alloca i32, align 4
  %17 = alloca i32, align 4
  %18 = alloca ptr, align 8
  %19 = alloca i32, align 4
  %20 = getelementptr inbounds %union.SourceSpan, ptr %8, i32 0, i32 0
  store i64 %2, ptr %20, align 8
  store ptr %0, ptr %9, align 8
  store ptr %1, ptr %10, align 8
  %21 = load ptr, ptr %10, align 8
  %22 = getelementptr inbounds %struct.Module_, ptr %21, i32 0, i32 4
  %23 = load i32, ptr %22, align 4
  store i32 %23, ptr %11, align 4
  br label %24

24:                                               ; preds = %108, %3
  %25 = load i32, ptr %11, align 4
  %26 = icmp ne i32 %25, 0
  br i1 %26, label %27, label %109

27:                                               ; preds = %24
  %28 = load i32, ptr %11, align 4
  %29 = call ptr @astptr(i32 noundef %28)
  store ptr %29, ptr %12, align 8
  %30 = load ptr, ptr %12, align 8
  %31 = getelementptr inbounds %struct.Ast_, ptr %30, i32 0, i32 1
  %32 = load i32, ptr %31, align 8
  store i32 %32, ptr %11, align 4
  %33 = load ptr, ptr %9, align 8
  %34 = load ptr, ptr %10, align 8
  %35 = getelementptr inbounds %struct.Module_, ptr %34, i32 0, i32 7
  %36 = load ptr, ptr %35, align 8
  %37 = getelementptr inbounds ptr, ptr %36, i64 0
  %38 = load ptr, ptr %37, align 8
  %39 = call ptr @context_transform_for_eval(ptr noundef %33, ptr noundef %13, ptr noundef %38)
  store ptr %39, ptr %14, align 8
  %40 = load ptr, ptr %12, align 8
  %41 = getelementptr inbounds %struct.Ast_, ptr %40, i32 0, i32 3
  %42 = getelementptr inbounds %struct.AstDocDirective_, ptr %41, i32 0, i32 1
  %43 = getelementptr inbounds %struct.anon.67, ptr %42, i32 0, i32 0
  %44 = load ptr, ptr %43, align 8
  %45 = getelementptr inbounds %struct.Expr_, ptr %44, i32 0, i32 3
  %46 = load ptr, ptr %45, align 8
  store ptr %46, ptr %15, align 8
  %47 = load ptr, ptr %15, align 8
  store ptr %47, ptr %5, align 8
  %48 = load ptr, ptr %5, align 8
  %49 = icmp ne ptr %48, null
  br i1 %49, label %51, label %50

50:                                               ; preds = %27
  store i32 0, ptr %4, align 4
  br label %56

51:                                               ; preds = %27
  %52 = load ptr, ptr %5, align 8
  store ptr %52, ptr %6, align 8
  %53 = load ptr, ptr %6, align 8
  %54 = getelementptr inbounds %struct.VHeader_, ptr %53, i64 -1
  %55 = load i32, ptr %54, align 4
  store i32 %55, ptr %4, align 4
  br label %56

56:                                               ; preds = %51, %50
  %57 = load i32, ptr %4, align 4
  store i32 %57, ptr %16, align 4
  store i32 0, ptr %17, align 4
  br label %58

58:                                               ; preds = %103, %56
  %59 = load i32, ptr %17, align 4
  %60 = load i32, ptr %16, align 4
  %61 = icmp ult i32 %59, %60
  br i1 %61, label %62, label %106

62:                                               ; preds = %58
  %63 = load ptr, ptr %15, align 8
  %64 = load i32, ptr %17, align 4
  %65 = zext i32 %64 to i64
  %66 = getelementptr inbounds ptr, ptr %63, i64 %65
  %67 = load ptr, ptr %66, align 8
  store ptr %67, ptr %18, align 8
  %68 = load ptr, ptr %14, align 8
  %69 = load ptr, ptr %18, align 8
  %70 = call i32 @sema_check_comp_time_bool(ptr noundef %68, ptr noundef %69)
  store i32 %70, ptr %19, align 4
  %71 = load i32, ptr %19, align 4
  %72 = icmp eq i32 %71, -1
  br i1 %72, label %73, label %74

73:                                               ; preds = %62
  br label %102

74:                                               ; preds = %62
  %75 = load i32, ptr %19, align 4
  %76 = icmp ne i32 %75, 0
  br i1 %76, label %77, label %78

77:                                               ; preds = %74
  br label %103

78:                                               ; preds = %74
  %79 = load ptr, ptr %12, align 8
  %80 = getelementptr inbounds %struct.Ast_, ptr %79, i32 0, i32 3
  %81 = getelementptr inbounds %struct.AstDocDirective_, ptr %80, i32 0, i32 1
  %82 = getelementptr inbounds %struct.anon.67, ptr %81, i32 0, i32 1
  %83 = load ptr, ptr %82, align 8
  %84 = icmp ne ptr %83, null
  br i1 %84, label %85, label %93

85:                                               ; preds = %78
  %86 = load ptr, ptr %12, align 8
  %87 = getelementptr inbounds %struct.Ast_, ptr %86, i32 0, i32 3
  %88 = getelementptr inbounds %struct.AstDocDirective_, ptr %87, i32 0, i32 1
  %89 = getelementptr inbounds %struct.anon.67, ptr %88, i32 0, i32 1
  %90 = load ptr, ptr %89, align 8
  %91 = getelementptr inbounds %union.SourceSpan, ptr %8, i32 0, i32 0
  %92 = load i64, ptr %91, align 8
  call void (i64, ptr, ...) @sema_error_at(i64 %92, ptr noundef @.str.126, ptr noundef %90)
  br label %101

93:                                               ; preds = %78
  %94 = load ptr, ptr %12, align 8
  %95 = getelementptr inbounds %struct.Ast_, ptr %94, i32 0, i32 3
  %96 = getelementptr inbounds %struct.AstDocDirective_, ptr %95, i32 0, i32 1
  %97 = getelementptr inbounds %struct.anon.67, ptr %96, i32 0, i32 2
  %98 = load ptr, ptr %97, align 8
  %99 = getelementptr inbounds %union.SourceSpan, ptr %8, i32 0, i32 0
  %100 = load i64, ptr %99, align 8
  call void (i64, ptr, ...) @sema_error_at(i64 %100, ptr noundef @.str.127, ptr noundef %98)
  br label %101

101:                                              ; preds = %93, %85
  br label %102

102:                                              ; preds = %101, %73
  call void @sema_context_destroy(ptr noundef %13)
  store i1 false, ptr %7, align 1
  br label %110

103:                                              ; preds = %77
  %104 = load i32, ptr %17, align 4
  %105 = add i32 %104, 1
  store i32 %105, ptr %17, align 4
  br label %58, !llvm.loop !20

106:                                              ; preds = %58
  br label %107

107:                                              ; preds = %106
  br label %108

108:                                              ; preds = %107
  call void @sema_context_destroy(ptr noundef %13)
  br label %24, !llvm.loop !21

109:                                              ; preds = %24
  store i1 true, ptr %7, align 1
  br label %110

110:                                              ; preds = %109, %102
  %111 = load i1, ptr %7, align 1
  ret i1 %111
}