; Function Attrs: nounwind uwtable
define internal fastcc noundef zeroext i1 @sema_analyse_generic_module_contracts(ptr noundef %0, ptr nocapture noundef readonly %1, i64 %2) unnamed_addr #0 {
  %4 = alloca %struct.SemaContext_, align 8
  %5 = getelementptr inbounds i8, ptr %1, i64 28
  %6 = load i32, ptr %5, align 4
  %.not41 = icmp eq i32 %6, 0
  br i1 %.not41, label %.loopexit34, label %.lr.ph45

.lr.ph45:                                         ; preds = %3
  %7 = getelementptr inbounds i8, ptr %1, i64 56
  br label %8

8:                                                ; preds = %.lr.ph45, %._crit_edge
  %.02742 = phi i32 [ %6, %.lr.ph45 ], [ %13, %._crit_edge ]
  %9 = load ptr, ptr @ast_arena, align 8
  %10 = zext i32 %.02742 to i64
  %11 = getelementptr inbounds %struct.Ast_, ptr %9, i64 %10
  %12 = getelementptr inbounds i8, ptr %11, i64 8
  %13 = load i32, ptr %12, align 8
  %14 = load ptr, ptr %7, align 8
  %15 = load ptr, ptr %14, align 8
  %16 = call ptr @context_transform_for_eval(ptr noundef %0, ptr noundef nonnull %4, ptr noundef %15) #10
  %17 = getelementptr inbounds i8, ptr %11, i64 24
  %18 = load ptr, ptr %17, align 8
  %19 = getelementptr inbounds i8, ptr %18, i64 24
  %20 = load ptr, ptr %19, align 8
  %.not31 = icmp eq ptr %20, null
  br i1 %.not31, label %._crit_edge, label %21

21:                                               ; preds = %8
  %22 = getelementptr inbounds i8, ptr %20, i64 -8
  %23 = load i32, ptr %22, align 4
  %.not46 = icmp eq i32 %23, 0
  br i1 %.not46, label %._crit_edge, label %.lr.ph.preheader

.lr.ph.preheader:                                 ; preds = %21
  %wide.trip.count = zext i32 %23 to i64
  br label %.lr.ph

.lr.ph:                                           ; preds = %.lr.ph.preheader, %34
  %indvars.iv = phi i64 [ 0, %.lr.ph.preheader ], [ %indvars.iv.next, %34 ]
  %24 = getelementptr inbounds ptr, ptr %20, i64 %indvars.iv
  %25 = load ptr, ptr %24, align 8
  %26 = call i32 @sema_check_comp_time_bool(ptr noundef %16, ptr noundef %25) #10
  switch i32 %26, label %34 [
    i32 -1, label %.loopexit
    i32 0, label %27
  ]

27:                                               ; preds = %.lr.ph
  %28 = getelementptr inbounds i8, ptr %11, i64 32
  %29 = load ptr, ptr %28, align 8
  %.not33 = icmp eq ptr %29, null
  br i1 %.not33, label %31, label %30

30:                                               ; preds = %27
  call void (i64, ptr, ...) @sema_error_at(i64 %2, ptr noundef nonnull @.str.126, ptr noundef nonnull %29) #10
  br label %.loopexit

31:                                               ; preds = %27
  %32 = getelementptr inbounds i8, ptr %11, i64 40
  %33 = load ptr, ptr %32, align 8
  call void (i64, ptr, ...) @sema_error_at(i64 %2, ptr noundef nonnull @.str.127, ptr noundef %33) #10
  br label %.loopexit

.loopexit:                                        ; preds = %.lr.ph, %30, %31
  call void @sema_context_destroy(ptr noundef nonnull %4) #10
  br label %.loopexit34

34:                                               ; preds = %.lr.ph
  %indvars.iv.next = add nuw nsw i64 %indvars.iv, 1
  %exitcond.not = icmp eq i64 %indvars.iv.next, %wide.trip.count
  br i1 %exitcond.not, label %._crit_edge, label %.lr.ph, !llvm.loop !19

._crit_edge:                                      ; preds = %34, %8, %21
  call void @sema_context_destroy(ptr noundef nonnull %4) #10
  %.not = icmp eq i32 %13, 0
  br i1 %.not, label %.loopexit34, label %8, !llvm.loop !20

.loopexit34:                                      ; preds = %._crit_edge, %3, %.loopexit
  %.not37 = phi i1 [ false, %.loopexit ], [ true, %3 ], [ true, %._crit_edge ]
  ret i1 %.not37
}